target datalayout = "e-m:e-p270:32:32-p271:32:32-p272:64:64-i64:64-i128:128-f80:128-n8:16:32:64-S128"
target triple = "x86_64-pc-linux-gnu"

%struct.product_state = type { i64, i64, i32, ptr, i32 }

; Function Attrs: nounwind sspstrong uwtable
define internal i64 @product_each_i(i64 noundef %0, i64 noundef %1, i32 noundef %2, ptr noundef %3, i64 noundef %4) #0 {
  %6 = alloca i64, align 8
  %7 = alloca i64, align 8
  %8 = alloca i32, align 4
  %9 = alloca ptr, align 8
  %10 = alloca i64, align 8
  %11 = alloca ptr, align 8
  %12 = alloca i64, align 8
  store i64 %0, ptr %6, align 8, !tbaa !7
  store i64 %1, ptr %7, align 8, !tbaa !7
  store i32 %2, ptr %8, align 4, !tbaa !11
  store ptr %3, ptr %9, align 8, !tbaa !13
  store i64 %4, ptr %10, align 8, !tbaa !7
  call void @llvm.lifetime.start.p0(i64 8, ptr %11) #23
  %13 = load i64, ptr %7, align 8, !tbaa !7
  %14 = inttoptr i64 %13 to ptr
  store ptr %14, ptr %11, align 8, !tbaa !145
  %15 = load i64, ptr %6, align 8, !tbaa !7
  %16 = load ptr, ptr %11, align 8, !tbaa !145
  %17 = getelementptr inbounds nuw %struct.product_state, ptr %16, i32 0, i32 3
  %18 = load ptr, ptr %17, align 8, !tbaa !143
  %19 = load ptr, ptr %11, align 8, !tbaa !145
  %20 = getelementptr inbounds nuw %struct.product_state, ptr %19, i32 0, i32 4
  %21 = load i32, ptr %20, align 8, !tbaa !144
  %22 = add i32 %21, 1
  store i32 %22, ptr %20, align 8, !tbaa !144
  %23 = sext i32 %21 to i64
  %24 = getelementptr i64, ptr %18, i64 %23
  store i64 %15, ptr %24, align 8, !tbaa !7
  call void @llvm.lifetime.start.p0(i64 8, ptr %12) #23
  %25 = load ptr, ptr %11, align 8, !tbaa !145
  %26 = getelementptr inbounds nuw %struct.product_state, ptr %25, i32 0, i32 0
  %27 = load i64, ptr %26, align 8, !tbaa !139
  %28 = load ptr, ptr %11, align 8, !tbaa !145
  %29 = call i64 @product_each(i64 noundef %27, ptr noundef %28)
  store i64 %29, ptr %12, align 8, !tbaa !7
  %30 = load ptr, ptr %11, align 8, !tbaa !145
  %31 = getelementptr inbounds nuw %struct.product_state, ptr %30, i32 0, i32 4
  %32 = load i32, ptr %31, align 8, !tbaa !144
  %33 = add i32 %32, -1
  store i32 %33, ptr %31, align 8, !tbaa !144
  %34 = load i64, ptr %12, align 8, !tbaa !7
  call void @llvm.lifetime.end.p0(i64 8, ptr %12) #23
  call void @llvm.lifetime.end.p0(i64 8, ptr %11) #23
  ret i64 %34
}