; Function Attrs: nounwind sspstrong uwtable
define internal noundef i64 @product_each_i(i64 noundef %0, i64 noundef %1, i32 %2, ptr readnone captures(none) %3, i64 %4) #0 {
  %6 = inttoptr i64 %1 to ptr
  %7 = getelementptr inbounds nuw i8, ptr %6, i64 24
  %8 = load ptr, ptr %7, align 8, !tbaa !118
  %9 = getelementptr inbounds nuw i8, ptr %6, i64 32
  %10 = load i32, ptr %9, align 8, !tbaa !119
  %11 = add i32 %10, 1
  store i32 %11, ptr %9, align 8, !tbaa !119
  %12 = sext i32 %10 to i64
  %13 = getelementptr i64, ptr %8, i64 %12
  store i64 %0, ptr %13, align 8, !tbaa !7
  %14 = load i64, ptr %6, align 8, !tbaa !114
  %15 = tail call fastcc i64 @product_each(i64 noundef %14, ptr noundef nonnull %6)
  %16 = load i32, ptr %9, align 8, !tbaa !119
  %17 = add i32 %16, -1
  store i32 %17, ptr %9, align 8, !tbaa !119
  ret i64 %14
}